
test.elf：     文件格式 elf64-littleaarch64


Disassembly of section .text:

0000000040080008 <_start>:
    40080008:	580006c1 	ldr	x1, 400800e0 <.iLbreak_test+0x10>
    4008000c:	580006e0 	ldr	x0, 400800e8 <.iLbreak_test+0x18>
    40080010:	ea000021 	ands	x1, x1, x0
    40080014:	aa0103e0 	mov	x0, x1
    40080018:	9400003e 	bl	40080110 <main>
    4008001c:	540001e0 	b.eq	40080058 <test>
    40080020:	540001c1 	b.ne	40080058 <test>

0000000040080024 <start2>:
    40080024:	580005e1 	ldr	x1, 400800e0 <.iLbreak_test+0x10>
    40080028:	ea030021 	ands	x1, x1, x3
    4008002c:	54000180 	b.eq	4008005c <test2>
    40080030:	54000161 	b.ne	4008005c <test2>

0000000040080034 <start3>:
    40080034:	580005a1 	ldr	x1, 400800e8 <.iLbreak_test+0x18>
    40080038:	580005c0 	ldr	x0, 400800f0 <.iLbreak_test+0x20>
    4008003c:	eb000021 	subs	x1, x1, x0
    40080040:	540002c1 	b.ne	40080098 <.break>
    40080044:	540002a0 	b.eq	40080098 <.break>
    40080048:	eb010003 	subs	x3, x0, x1
    4008004c:	54000268 	b.hi	40080098 <.break>
    40080050:	5400024b 	b.lt	40080098 <.break>
    40080054:	540000a9 	b.ls	40080068 <break_test+0x8>

0000000040080058 <test>:
    40080058:	17fffff3 	b	40080024 <start2>

000000004008005c <test2>:
    4008005c:	17fffff6 	b	40080034 <start3>

0000000040080060 <break_test>:
    40080060:	d2800061 	mov	x1, #0x3                   	// #3
    40080064:	94000001 	bl	40080068 <break_test+0x8>
    40080068:	f9000021 	str	x1, [x1]
    4008006c:	f9000060 	str	x0, [x3]
    40080070:	f9400029 	ldr	x9, [x1]
    40080074:	f9400430 	ldr	x16, [x1,#8]
    40080078:	a940302b 	ldp	x11, x12, [x1]
    4008007c:	580003ee 	ldr	x14, 400800f8 <.iLbreak_test+0x28>
    40080080:	8b0e016b 	add	x11, x11, x14
    40080084:	8b0e016c 	add	x12, x11, x14
    40080088:	91001821 	add	x1, x1, #0x6
    4008008c:	580003a3 	ldr	x3, 40080100 <.iLbreak_test+0x30>
    40080090:	d3545c64 	ubfx	x4, x3, #20, #4
    40080094:	d2800044 	mov	x4, #0x2                   	// #2

0000000040080098 <.break>:
    40080098:	f9000064 	str	x4, [x3]
    4008009c:	f9400065 	ldr	x5, [x3]
    400800a0:	aa1e03ef 	mov	x15, x30
    400800a4:	d5381011 	mrs	x17, sctlr_el1
    400800a8:	927bfa31 	and	x17, x17, #0xffffffffffffffef
    400800ac:	8a201631 	bic	x17, x17, x0, lsl #5
    400800b0:	58000250 	ldr	x16, 400800f8 <.iLbreak_test+0x28>
    400800b4:	b27f0210 	orr	x16, x16, #0x2
    400800b8:	94000004 	bl	400800c8 <.break+0x30>
    400800bc:	94000005 	bl	400800d0 <.iLbreak_test>
    400800c0:	aa0f03fe 	mov	x30, x15
    400800c4:	d61f03c0 	br	x30
    400800c8:	58000181 	ldr	x1, 400800f8 <.iLbreak_test+0x28>
    400800cc:	d65f03c0 	ret

00000000400800d0 <.iLbreak_test>:
    400800d0:	8b010000 	add	x0, x0, x1
    400800d4:	d2800300 	mov	x0, #0x18                  	// #24
    400800d8:	58000181 	ldr	x1, 40080108 <.iLbreak_test+0x38>
    400800dc:	d61f03c0 	br	x30
    400800e0:	00000301 	.word	0x00000301
    400800e4:	00000000 	.word	0x00000000
    400800e8:	00000010 	.word	0x00000010
    400800ec:	00000000 	.word	0x00000000
    400800f0:	00000011 	.word	0x00000011
	...
    40080100:	10200040 	.word	0x10200040
    40080104:	00000000 	.word	0x00000000
    40080108:	00020026 	.word	0x00020026
    4008010c:	00000000 	.word	0x00000000

0000000040080110 <main>:
    40080110:	d10103ff 	sub	sp, sp, #0x40
    40080114:	b9000fe0 	str	w0, [sp,#12]
    40080118:	52800140 	mov	w0, #0xa                   	// #10
    4008011c:	b9003fe0 	str	w0, [sp,#60]
    40080120:	90000000 	adrp	x0, 40080000 <_start-0x8>
    40080124:	9105a000 	add	x0, x0, #0x168
    40080128:	f9001be0 	str	x0, [sp,#48]
    4008012c:	d2800140 	mov	x0, #0xa                   	// #10
    40080130:	f90017e0 	str	x0, [sp,#40]
    40080134:	d2800140 	mov	x0, #0xa                   	// #10
    40080138:	f90013e0 	str	x0, [sp,#32]
    4008013c:	d2800cc0 	mov	x0, #0x66                  	// #102
    40080140:	f9000fe0 	str	x0, [sp,#24]
    40080144:	f9400fe0 	ldr	x0, [sp,#24]
    40080148:	aa0003ee 	mov	x14, x0
    4008014c:	f9400fe0 	ldr	x0, [sp,#24]
    40080150:	2a0003e1 	mov	w1, w0
    40080154:	b9400fe0 	ldr	w0, [sp,#12]
    40080158:	0b000020 	add	w0, w1, w0
    4008015c:	910103ff 	add	sp, sp, #0x40
    40080160:	d65f03c0 	ret
